target datalayout = "e-m:e-p270:32:32-p271:32:32-p272:64:64-i64:64-i128:128-f80:128-n8:16:32:64-S128"
target triple = "x86_64-pc-linux-gnu"

%struct.FLAC__BitReader = type { ptr, i32, i32, i32, i32, i32, i32, i32, i32, i32, i32, i32, ptr, ptr }

; Function Attrs: nounwind sspstrong uwtable
define hidden i32 @FLAC__bitreader_init(ptr noundef %0, ptr noundef %1, ptr noundef %2) #0 {
  %4 = alloca i32, align 4
  %5 = alloca ptr, align 8
  %6 = alloca ptr, align 8
  %7 = alloca ptr, align 8
  store ptr %0, ptr %5, align 8, !tbaa !3
  store ptr %1, ptr %6, align 8, !tbaa !22
  store ptr %2, ptr %7, align 8, !tbaa !22
  %8 = load ptr, ptr %5, align 8, !tbaa !3
  %9 = getelementptr inbounds nuw %struct.FLAC__BitReader, ptr %8, i32 0, i32 3
  store i32 0, ptr %9, align 8, !tbaa !13
  %10 = load ptr, ptr %5, align 8, !tbaa !3
  %11 = getelementptr inbounds nuw %struct.FLAC__BitReader, ptr %10, i32 0, i32 2
  store i32 0, ptr %11, align 4, !tbaa !14
  %12 = load ptr, ptr %5, align 8, !tbaa !3
  %13 = getelementptr inbounds nuw %struct.FLAC__BitReader, ptr %12, i32 0, i32 5
  store i32 0, ptr %13, align 8, !tbaa !15
  %14 = load ptr, ptr %5, align 8, !tbaa !3
  %15 = getelementptr inbounds nuw %struct.FLAC__BitReader, ptr %14, i32 0, i32 4
  store i32 0, ptr %15, align 4, !tbaa !16
  %16 = load ptr, ptr %5, align 8, !tbaa !3
  %17 = getelementptr inbounds nuw %struct.FLAC__BitReader, ptr %16, i32 0, i32 1
  store i32 1024, ptr %17, align 8, !tbaa !12
  %18 = load ptr, ptr %5, align 8, !tbaa !3
  %19 = getelementptr inbounds nuw %struct.FLAC__BitReader, ptr %18, i32 0, i32 1
  %20 = load i32, ptr %19, align 8, !tbaa !12
  %21 = zext i32 %20 to i64
  %22 = mul i64 8, %21
  %23 = call noalias ptr @malloc(i64 noundef %22) #12
  %24 = load ptr, ptr %5, align 8, !tbaa !3
  %25 = getelementptr inbounds nuw %struct.FLAC__BitReader, ptr %24, i32 0, i32 0
  store ptr %23, ptr %25, align 8, !tbaa !8
  %26 = load ptr, ptr %5, align 8, !tbaa !3
  %27 = getelementptr inbounds nuw %struct.FLAC__BitReader, ptr %26, i32 0, i32 0
  %28 = load ptr, ptr %27, align 8, !tbaa !8
  %29 = icmp eq ptr %28, null
  br i1 %29, label %30, label %31

30:                                               ; preds = %3
  store i32 0, ptr %4, align 4
  br label %44

31:                                               ; preds = %3
  %32 = load ptr, ptr %6, align 8, !tbaa !22
  %33 = load ptr, ptr %5, align 8, !tbaa !3
  %34 = getelementptr inbounds nuw %struct.FLAC__BitReader, ptr %33, i32 0, i32 12
  store ptr %32, ptr %34, align 8, !tbaa !17
  %35 = load ptr, ptr %7, align 8, !tbaa !22
  %36 = load ptr, ptr %5, align 8, !tbaa !3
  %37 = getelementptr inbounds nuw %struct.FLAC__BitReader, ptr %36, i32 0, i32 13
  store ptr %35, ptr %37, align 8, !tbaa !18
  %38 = load ptr, ptr %5, align 8, !tbaa !3
  %39 = getelementptr inbounds nuw %struct.FLAC__BitReader, ptr %38, i32 0, i32 9
  store i32 0, ptr %39, align 8, !tbaa !19
  %40 = load ptr, ptr %5, align 8, !tbaa !3
  %41 = getelementptr inbounds nuw %struct.FLAC__BitReader, ptr %40, i32 0, i32 10
  store i32 -1, ptr %41, align 4, !tbaa !20
  %42 = load ptr, ptr %5, align 8, !tbaa !3
  %43 = getelementptr inbounds nuw %struct.FLAC__BitReader, ptr %42, i32 0, i32 11
  store i32 -1, ptr %43, align 8, !tbaa !21
  store i32 1, ptr %4, align 4
  br label %44

44:                                               ; preds = %31, %30
  %45 = load i32, ptr %4, align 4
  ret i32 %45
}