; Function Attrs: mustprogress nofree nounwind sspstrong willreturn memory(argmem: write, inaccessiblemem: readwrite) uwtable
define hidden range(i32 0, 2) i32 @FLAC__bitreader_init(ptr noundef writeonly captures(none) initializes((0, 28)) %0, ptr noundef %1, ptr noundef %2) local_unnamed_addr #5 {
  %4 = getelementptr inbounds nuw i8, ptr %0, i64 12
  %5 = getelementptr inbounds nuw i8, ptr %0, i64 8
  tail call void @llvm.memset.p0.i64(ptr noundef nonnull align 4 dereferenceable(16) %4, i8 0, i64 16, i1 false)
  store i32 1024, ptr %5, align 8, !tbaa !13
  %6 = tail call noalias dereferenceable_or_null(8192) ptr @malloc(i64 noundef 8192) #22
  store ptr %6, ptr %0, align 8, !tbaa !3
  %7 = icmp eq ptr %6, null
  br i1 %7, label %14, label %8

8:                                                ; preds = %3
  %9 = getelementptr inbounds nuw i8, ptr %0, i64 56
  store ptr %1, ptr %9, align 8, !tbaa !14
  %10 = getelementptr inbounds nuw i8, ptr %0, i64 64
  store ptr %2, ptr %10, align 8, !tbaa !15
  %11 = getelementptr inbounds nuw i8, ptr %0, i64 40
  store i32 0, ptr %11, align 8, !tbaa !10
  %12 = getelementptr inbounds nuw i8, ptr %0, i64 44
  store i32 -1, ptr %12, align 4, !tbaa !11
  %13 = getelementptr inbounds nuw i8, ptr %0, i64 48
  store i32 -1, ptr %13, align 8, !tbaa !12
  br label %14

14:                                               ; preds = %3, %8
  %.0 = phi i32 [ 1, %8 ], [ 0, %3 ]
  ret i32 %.0
}